target datalayout = "e-m:e-p270:32:32-p271:32:32-p272:64:64-i64:64-i128:128-f80:128-n8:16:32:64-S128"
target triple = "x86_64-pc-linux-gnu"

%struct.srun_opt_t = type { i16, ptr, ptr, ptr, i8, ptr, i16, i8, ptr, i32, i8, i8, i8, ptr, i8, i8, i8, i32, i32, i32, i8, i32, i32, i32, ptr, i8, i32, i8, i8, ptr, ptr, i32, i8, i8, ptr, ptr, ptr, i8, i32, i8, i32, ptr, ptr, i8, i8, i16, i8, i8 }
%struct.timeval = type { i64, i64 }
%struct.slurm_step_id_msg = type { i64, i32, i32, i32 }
%struct.srun_job = type { %struct.slurm_step_id_msg, i32, i32, ptr, i32, i32, i32, i32, ptr, ptr, ptr, ptr, i32, i32, i32, i16, i16, i16, i16, i32, %union.pthread_mutex_t, %union.pthread_cond_t, i32, ptr, ptr, ptr, ptr, ptr, ptr, i32, i16, i16, i16, ptr, ptr, ptr, ptr, i32, ptr, i32, ptr }
%union.pthread_mutex_t = type { %struct.__pthread_mutex_s }
%struct.__pthread_mutex_s = type { i32, i32, i32, i32, i32, i16, i16, %struct.__pthread_internal_list }
%struct.__pthread_internal_list = type { ptr, ptr }
%union.pthread_cond_t = type { %struct.__pthread_cond_s }
%struct.__pthread_cond_s = type { %union.__atomic_wide_counter, %union.__atomic_wide_counter, [2 x i32], [2 x i32], i32, i32, [2 x i32] }
%union.__atomic_wide_counter = type { i64 }
%struct.__sigset_t = type { [16 x i64] }

@sig_array = external global [0 x i32], align 4
@sropt = external global %struct.srun_opt_t, align 8
@srun_shutdown = external global i8, align 1
@.str.43 = private unnamed_addr constant [24 x i8] c"forcing job termination\00", align 1
@.str.115 = private unnamed_addr constant [5 x i8] c"Quit\00", align 1
@.str.116 = private unnamed_addr constant [12 x i8] c"got SIGCONT\00", align 1
@srun_max_timer = external global i8, align 1
@.str.117 = private unnamed_addr constant [26 x i8] c"First task exited %ds ago\00", align 1
@_handle_intr.last_intr = internal global %struct.timeval zeroinitializer, align 8
@.str.118 = private unnamed_addr constant [22 x i8] c"sending Ctrl-C to %ps\00", align 1
@.str.119 = private unnamed_addr constant [43 x i8] c"interrupt (one more within 1 sec to abort)\00", align 1
@_handle_pipe.ending = internal global i32 0, align 4

; Function Attrs: nounwind uwtable
define internal i64 @_diff_tv_str(ptr noundef %0, ptr noundef %1) #0 {
  %3 = alloca ptr, align 8
  %4 = alloca ptr, align 8
  %5 = alloca i64, align 8
  store ptr %0, ptr %3, align 8
  store ptr %1, ptr %4, align 8
  call void @llvm.lifetime.start.p0(i64 8, ptr %5) #10
  %6 = load ptr, ptr %4, align 8
  %7 = getelementptr inbounds nuw %struct.timeval, ptr %6, i32 0, i32 0
  %8 = load i64, ptr %7, align 8
  %9 = load ptr, ptr %3, align 8
  %10 = getelementptr inbounds nuw %struct.timeval, ptr %9, i32 0, i32 0
  %11 = load i64, ptr %10, align 8
  %12 = sub nsw i64 %8, %11
  %13 = icmp slt i64 %12, 10
  br i1 %13, label %14, label %22

14:                                               ; preds = %2
  %15 = load ptr, ptr %4, align 8
  %16 = getelementptr inbounds nuw %struct.timeval, ptr %15, i32 0, i32 0
  %17 = load i64, ptr %16, align 8
  %18 = load ptr, ptr %3, align 8
  %19 = getelementptr inbounds nuw %struct.timeval, ptr %18, i32 0, i32 0
  %20 = load i64, ptr %19, align 8
  %21 = sub nsw i64 %17, %20
  br label %23

22:                                               ; preds = %2
  br label %23

23:                                               ; preds = %22, %14
  %24 = phi i64 [ %21, %14 ], [ 10, %22 ]
  store i64 %24, ptr %5, align 8
  %25 = load i64, ptr %5, align 8
  %26 = mul nsw i64 %25, 1000000
  store i64 %26, ptr %5, align 8
  %27 = load ptr, ptr %4, align 8
  %28 = getelementptr inbounds nuw %struct.timeval, ptr %27, i32 0, i32 1
  %29 = load i64, ptr %28, align 8
  %30 = load ptr, ptr %3, align 8
  %31 = getelementptr inbounds nuw %struct.timeval, ptr %30, i32 0, i32 1
  %32 = load i64, ptr %31, align 8
  %33 = sub nsw i64 %29, %32
  %34 = load i64, ptr %5, align 8
  %35 = add nsw i64 %34, %33
  store i64 %35, ptr %5, align 8
  %36 = load i64, ptr %5, align 8
  call void @llvm.lifetime.end.p0(i64 8, ptr %5) #10
  ret i64 %36
}

; Function Attrs: nounwind uwtable
define internal void @_handle_pipe() #0 {
  %1 = load i32, ptr @_handle_pipe.ending, align 4
  %2 = icmp ne i32 %1, 0
  br i1 %2, label %3, label %4

3:                                                ; preds = %0
  br label %5

4:                                                ; preds = %0
  store i32 1, ptr @_handle_pipe.ending, align 4
  call void @launch_g_fwd_signal(i32 noundef 9)
  br label %5

5:                                                ; preds = %4, %3
  ret void
}

; Function Attrs: nounwind uwtable
define internal void @_handle_intr(ptr noundef %0) #0 {
  %2 = alloca ptr, align 8
  %3 = alloca %struct.timeval, align 8
  store ptr %0, ptr %2, align 8
  call void @llvm.lifetime.start.p0(i64 16, ptr %3) #10
  %4 = call i32 @gettimeofday(ptr noundef %3, ptr noundef null) #10
  %5 = load i8, ptr getelementptr inbounds nuw (%struct.srun_opt_t, ptr @sropt, i32 0, i32 37), align 8, !range !8, !noundef !9
  %6 = trunc i8 %5 to i1
  br i1 %6, label %10, label %7

7:                                                ; preds = %1
  %8 = call i64 @_diff_tv_str(ptr noundef @_handle_intr.last_intr, ptr noundef %3)
  %9 = icmp slt i64 %8, 1000000
  br i1 %9, label %10, label %24

10:                                               ; preds = %7, %1
  br label %11

11:                                               ; preds = %10
  br label %12

12:                                               ; preds = %11
  %13 = call i32 @get_log_level()
  %14 = icmp sge i32 %13, 3
  br i1 %14, label %15, label %18

15:                                               ; preds = %12
  %16 = load ptr, ptr %2, align 8
  %17 = getelementptr inbounds nuw %struct.srun_job, ptr %16, i32 0, i32 0
  call void (i32, ptr, ...) @log_var(i32 noundef 3, ptr noundef @.str.118, ptr noundef %17)
  br label %18

18:                                               ; preds = %15, %12
  br label %19

19:                                               ; preds = %18
  br label %20

20:                                               ; preds = %19
  br label %21

21:                                               ; preds = %20
  br label %22

22:                                               ; preds = %21
  call void @launch_g_fwd_signal(i32 noundef 2)
  %23 = load ptr, ptr %2, align 8
  call void @job_force_termination(ptr noundef %23)
  br label %58

24:                                               ; preds = %7
  %25 = load i8, ptr getelementptr inbounds nuw (%struct.srun_opt_t, ptr @sropt, i32 0, i32 11), align 1, !range !8, !noundef !9
  %26 = trunc i8 %25 to i1
  br i1 %26, label %27, label %40

27:                                               ; preds = %24
  br label %28

28:                                               ; preds = %27
  br label %29

29:                                               ; preds = %28
  %30 = call i32 @get_log_level()
  %31 = icmp sge i32 %30, 3
  br i1 %31, label %32, label %35

32:                                               ; preds = %29
  %33 = load ptr, ptr %2, align 8
  %34 = getelementptr inbounds nuw %struct.srun_job, ptr %33, i32 0, i32 0
  call void (i32, ptr, ...) @log_var(i32 noundef 3, ptr noundef @.str.118, ptr noundef %34)
  br label %35

35:                                               ; preds = %32, %29
  br label %36

36:                                               ; preds = %35
  br label %37

37:                                               ; preds = %36
  br label %38

38:                                               ; preds = %37
  br label %39

39:                                               ; preds = %38
  call void @launch_g_fwd_signal(i32 noundef 2)
  br label %57

40:                                               ; preds = %24
  %41 = load ptr, ptr %2, align 8
  %42 = getelementptr inbounds nuw %struct.srun_job, ptr %41, i32 0, i32 19
  %43 = load i32, ptr %42, align 4
  %44 = icmp ult i32 %43, 4
  br i1 %44, label %45, label %56

45:                                               ; preds = %40
  br label %46

46:                                               ; preds = %45
  br label %47

47:                                               ; preds = %46
  %48 = call i32 @get_log_level()
  %49 = icmp sge i32 %48, 3
  br i1 %49, label %50, label %51

50:                                               ; preds = %47
  call void (i32, ptr, ...) @log_var(i32 noundef 3, ptr noundef @.str.119)
  br label %51

51:                                               ; preds = %50, %47
  br label %52

52:                                               ; preds = %51
  br label %53

53:                                               ; preds = %52
  br label %54

54:                                               ; preds = %53
  br label %55

55:                                               ; preds = %54
  call void @launch_g_print_status()
  br label %56

56:                                               ; preds = %55, %40
  br label %57

57:                                               ; preds = %56, %39
  call void @llvm.memcpy.p0.p0.i64(ptr align 8 @_handle_intr.last_intr, ptr align 8 %3, i64 16, i1 false)
  br label %58

58:                                               ; preds = %57, %22
  call void @llvm.lifetime.end.p0(i64 16, ptr %3) #10
  ret void
}

; Function Attrs: nounwind uwtable
define internal ptr @_srun_signal_mgr(ptr noundef %0) #0 {
  %2 = alloca ptr, align 8
  %3 = alloca i32, align 4
  %4 = alloca i32, align 4
  %5 = alloca i32, align 4
  %6 = alloca %struct.__sigset_t, align 8
  %7 = alloca ptr, align 8
  store ptr %0, ptr %2, align 8
  call void @llvm.lifetime.start.p0(i64 4, ptr %3) #10
  call void @llvm.lifetime.start.p0(i64 4, ptr %4) #10
  call void @llvm.lifetime.start.p0(i64 4, ptr %5) #10
  call void @llvm.lifetime.start.p0(i64 128, ptr %6) #10
  call void @llvm.lifetime.start.p0(i64 8, ptr %7) #10
  %8 = load ptr, ptr %2, align 8
  store ptr %8, ptr %7, align 8
  store i32 0, ptr %4, align 4
  br label %9

9:                                                ; preds = %21, %1
  %10 = load i32, ptr %4, align 4
  %11 = sext i32 %10 to i64
  %12 = getelementptr inbounds [0 x i32], ptr @sig_array, i64 0, i64 %11
  %13 = load i32, ptr %12, align 4
  %14 = icmp ne i32 %13, 0
  br i1 %14, label %15, label %24

15:                                               ; preds = %9
  %16 = load i32, ptr %4, align 4
  %17 = sext i32 %16 to i64
  %18 = getelementptr inbounds [0 x i32], ptr @sig_array, i64 0, i64 %17
  %19 = load i32, ptr %18, align 4
  %20 = call ptr @xsignal_default(i32 noundef %19)
  br label %21

21:                                               ; preds = %15
  %22 = load i32, ptr %4, align 4
  %23 = add nsw i32 %22, 1
  store i32 %23, ptr %4, align 4
  br label %9, !llvm.loop !43

24:                                               ; preds = %9
  br label %25

25:                                               ; preds = %96, %34, %24
  %26 = load i8, ptr @srun_shutdown, align 1, !range !8, !noundef !9
  %27 = trunc i8 %26 to i1
  %28 = xor i1 %27, true
  br i1 %28, label %29, label %97

29:                                               ; preds = %25
  %30 = call i32 @xsignal_sigset_create(ptr noundef @sig_array, ptr noundef %6)
  %31 = call i32 @sigwait(ptr noundef %6, ptr noundef %3)
  store i32 %31, ptr %5, align 4
  %32 = load i32, ptr %5, align 4
  %33 = icmp eq i32 %32, 4
  br i1 %33, label %34, label %35

34:                                               ; preds = %29
  br label %25, !llvm.loop !44

35:                                               ; preds = %29
  %36 = load i32, ptr %3, align 4
  switch i32 %36, label %94 [
    i32 2, label %37
    i32 3, label %43
    i32 15, label %54
    i32 1, label %54
    i32 18, label %65
    i32 13, label %76
    i32 14, label %77
  ]

37:                                               ; preds = %35
  %38 = load i8, ptr @srun_shutdown, align 1, !range !8, !noundef !9
  %39 = trunc i8 %38 to i1
  br i1 %39, label %42, label %40

40:                                               ; preds = %37
  %41 = load ptr, ptr %7, align 8
  call void @_handle_intr(ptr noundef %41)
  br label %42

42:                                               ; preds = %40, %37
  br label %96

43:                                               ; preds = %35
  br label %44

44:                                               ; preds = %43
  br label %45

45:                                               ; preds = %44
  %46 = call i32 @get_log_level()
  %47 = icmp sge i32 %46, 3
  br i1 %47, label %48, label %49

48:                                               ; preds = %45
  call void (i32, ptr, ...) @log_var(i32 noundef 3, ptr noundef @.str.115)
  br label %49

49:                                               ; preds = %48, %45
  br label %50

50:                                               ; preds = %49
  br label %51

51:                                               ; preds = %50
  br label %52

52:                                               ; preds = %51
  br label %53

53:                                               ; preds = %52
  br label %54

54:                                               ; preds = %35, %35, %53
  br label %55

55:                                               ; preds = %54
  br label %56

56:                                               ; preds = %55
  %57 = call i32 @get_log_level()
  %58 = icmp sge i32 %57, 3
  br i1 %58, label %59, label %60

59:                                               ; preds = %56
  call void (i32, ptr, ...) @log_var(i32 noundef 3, ptr noundef @.str.43)
  br label %60

60:                                               ; preds = %59, %56
  br label %61

61:                                               ; preds = %60
  br label %62

62:                                               ; preds = %61
  br label %63

63:                                               ; preds = %62
  br label %64

64:                                               ; preds = %63
  call void @launch_g_fwd_signal(i32 noundef 9)
  br label %96

65:                                               ; preds = %35
  br label %66

66:                                               ; preds = %65
  br label %67

67:                                               ; preds = %66
  %68 = call i32 @get_log_level()
  %69 = icmp sge i32 %68, 3
  br i1 %69, label %70, label %71

70:                                               ; preds = %67
  call void (i32, ptr, ...) @log_var(i32 noundef 3, ptr noundef @.str.116)
  br label %71

71:                                               ; preds = %70, %67
  br label %72

72:                                               ; preds = %71
  br label %73

73:                                               ; preds = %72
  br label %74

74:                                               ; preds = %73
  br label %75

75:                                               ; preds = %74
  br label %96

76:                                               ; preds = %35
  call void @_handle_pipe()
  br label %96

77:                                               ; preds = %35
  %78 = load i8, ptr @srun_max_timer, align 1, !range !8, !noundef !9
  %79 = trunc i8 %78 to i1
  br i1 %79, label %80, label %93

80:                                               ; preds = %77
  br label %81

81:                                               ; preds = %80
  br label %82

82:                                               ; preds = %81
  %83 = call i32 @get_log_level()
  %84 = icmp sge i32 %83, 3
  br i1 %84, label %85, label %87

85:                                               ; preds = %82
  %86 = load i32, ptr getelementptr inbounds nuw (%struct.srun_opt_t, ptr @sropt, i32 0, i32 22), align 8
  call void (i32, ptr, ...) @log_var(i32 noundef 3, ptr noundef @.str.117, i32 noundef %86)
  br label %87

87:                                               ; preds = %85, %82
  br label %88

88:                                               ; preds = %87
  br label %89

89:                                               ; preds = %88
  br label %90

90:                                               ; preds = %89
  br label %91

91:                                               ; preds = %90
  call void @launch_g_print_status()
  %92 = call i32 @launch_g_step_terminate()
  br label %93

93:                                               ; preds = %91, %77
  br label %96

94:                                               ; preds = %35
  %95 = load i32, ptr %3, align 4
  call void @launch_g_fwd_signal(i32 noundef %95)
  br label %96

96:                                               ; preds = %94, %93, %76, %75, %64, %42
  br label %25, !llvm.loop !44

97:                                               ; preds = %25
  call void @llvm.lifetime.end.p0(i64 8, ptr %7) #10
  call void @llvm.lifetime.end.p0(i64 128, ptr %6) #10
  call void @llvm.lifetime.end.p0(i64 4, ptr %5) #10
  call void @llvm.lifetime.end.p0(i64 4, ptr %4) #10
  call void @llvm.lifetime.end.p0(i64 4, ptr %3) #10
  ret ptr null
}