; Function Attrs: nounwind uwtable
define internal noalias noundef ptr @_srun_signal_mgr(ptr noundef %0) #0 {
  %2 = alloca %struct.timeval, align 8
  %3 = alloca i32, align 4
  %4 = alloca %struct.__sigset_t, align 8
  call void @llvm.lifetime.start.p0(i64 4, ptr nonnull %3) #15
  call void @llvm.lifetime.start.p0(i64 128, ptr nonnull %4) #15
  %5 = load i32, ptr @sig_array, align 4
  %.not6 = icmp eq i32 %5, 0
  br i1 %.not6, label %.preheader, label %.lr.ph

.preheader:                                       ; preds = %.lr.ph, %1
  %6 = load i8, ptr @srun_shutdown, align 1, !range !8, !noundef !9
  %7 = trunc nuw i8 %6 to i1
  br i1 %7, label %._crit_edge, label %.lr.ph8

.lr.ph8:                                          ; preds = %.preheader
  %8 = getelementptr inbounds nuw i8, ptr %2, i64 8
  %9 = getelementptr inbounds nuw i8, ptr %0, i64 108
  br label %14

.lr.ph:                                           ; preds = %1, %.lr.ph
  %indvars.iv = phi i64 [ %indvars.iv.next, %.lr.ph ], [ 0, %1 ]
  %10 = phi i32 [ %13, %.lr.ph ], [ %5, %1 ]
  %11 = tail call ptr @xsignal_default(i32 noundef %10) #15
  %indvars.iv.next = add nuw nsw i64 %indvars.iv, 1
  %12 = getelementptr inbounds nuw [0 x i32], ptr @sig_array, i64 0, i64 %indvars.iv.next
  %13 = load i32, ptr %12, align 4
  %.not = icmp eq i32 %13, 0
  br i1 %.not, label %.preheader, label %.lr.ph, !llvm.loop !46

14:                                               ; preds = %.lr.ph8, %.backedge
  %15 = call i32 @xsignal_sigset_create(ptr noundef nonnull @sig_array, ptr noundef nonnull %4) #15
  %16 = call i32 @sigwait(ptr noundef nonnull %4, ptr noundef nonnull %3) #15
  %17 = icmp eq i32 %16, 4
  br i1 %17, label %.backedge, label %18

18:                                               ; preds = %14
  %19 = load i32, ptr %3, align 4
  switch i32 %19, label %82 [
    i32 2, label %20
    i32 3, label %57
    i32 15, label %61
    i32 1, label %61
    i32 18, label %66
    i32 13, label %70
    i32 14, label %72
  ]

20:                                               ; preds = %18
  %21 = load i8, ptr @srun_shutdown, align 1, !range !8, !noundef !9
  %22 = trunc nuw i8 %21 to i1
  br i1 %22, label %.backedge, label %23

23:                                               ; preds = %20
  call void @llvm.lifetime.start.p0(i64 16, ptr nonnull %2) #15
  %24 = call i32 @gettimeofday(ptr noundef nonnull %2, ptr noundef null) #15
  %25 = load i8, ptr getelementptr inbounds nuw (i8, ptr @sropt, i64 184), align 8, !range !8, !noundef !9
  %26 = trunc nuw i8 %25 to i1
  br i1 %26, label %35, label %27

27:                                               ; preds = %23
  %.val.i = load i64, ptr %2, align 8
  %.val4.i = load i64, ptr %8, align 8
  %28 = load i64, ptr @_handle_intr.last_intr, align 8
  %29 = sub nsw i64 %.val.i, %28
  %30 = call i64 @llvm.smin.i64(i64 %29, i64 10)
  %spec.select.i.i = mul i64 %30, 1000000
  %31 = load i64, ptr getelementptr inbounds nuw (i8, ptr @_handle_intr.last_intr, i64 8), align 8
  %32 = sub i64 %.val4.i, %31
  %33 = add nsw i64 %32, %spec.select.i.i
  %34 = icmp slt i64 %33, 1000000
  br i1 %34, label %35, label %40

35:                                               ; preds = %27, %23
  %36 = call i32 @get_log_level() #15
  %37 = icmp sgt i32 %36, 2
  br i1 %37, label %38, label %39

38:                                               ; preds = %35
  call void (i32, ptr, ...) @log_var(i32 noundef 3, ptr noundef nonnull @.str.118, ptr noundef %0) #15
  br label %39

39:                                               ; preds = %38, %35
  call void @launch_g_fwd_signal(i32 noundef 2) #15
  call void @job_force_termination(ptr noundef %0)
  br label %_handle_intr.exit

40:                                               ; preds = %27
  %41 = load i8, ptr getelementptr inbounds nuw (i8, ptr @sropt, i64 69), align 1, !range !8, !noundef !9
  %42 = trunc nuw i8 %41 to i1
  br i1 %42, label %43, label %48

43:                                               ; preds = %40
  %44 = call i32 @get_log_level() #15
  %45 = icmp sgt i32 %44, 2
  br i1 %45, label %46, label %47

46:                                               ; preds = %43
  call void (i32, ptr, ...) @log_var(i32 noundef 3, ptr noundef nonnull @.str.118, ptr noundef %0) #15
  br label %47

47:                                               ; preds = %46, %43
  call void @launch_g_fwd_signal(i32 noundef 2) #15
  br label %56

48:                                               ; preds = %40
  %49 = load i32, ptr %9, align 4
  %50 = icmp ult i32 %49, 4
  br i1 %50, label %51, label %56

51:                                               ; preds = %48
  %52 = call i32 @get_log_level() #15
  %53 = icmp sgt i32 %52, 2
  br i1 %53, label %54, label %55

54:                                               ; preds = %51
  call void (i32, ptr, ...) @log_var(i32 noundef 3, ptr noundef nonnull @.str.119) #15
  br label %55

55:                                               ; preds = %54, %51
  call void @launch_g_print_status() #15
  br label %56

56:                                               ; preds = %55, %48, %47
  call void @llvm.memcpy.p0.p0.i64(ptr noundef nonnull align 8 dereferenceable(16) @_handle_intr.last_intr, ptr noundef nonnull align 8 dereferenceable(16) %2, i64 16, i1 false)
  br label %_handle_intr.exit

_handle_intr.exit:                                ; preds = %39, %56
  call void @llvm.lifetime.end.p0(i64 16, ptr nonnull %2) #15
  br label %.backedge

57:                                               ; preds = %18
  %58 = call i32 @get_log_level() #15
  %59 = icmp sgt i32 %58, 2
  br i1 %59, label %60, label %61

60:                                               ; preds = %57
  call void (i32, ptr, ...) @log_var(i32 noundef 3, ptr noundef nonnull @.str.115) #15
  br label %61

61:                                               ; preds = %57, %60, %18, %18
  %62 = call i32 @get_log_level() #15
  %63 = icmp sgt i32 %62, 2
  br i1 %63, label %64, label %65

64:                                               ; preds = %61
  call void (i32, ptr, ...) @log_var(i32 noundef 3, ptr noundef nonnull @.str.43) #15
  br label %65

65:                                               ; preds = %64, %61
  call void @launch_g_fwd_signal(i32 noundef 9) #15
  br label %.backedge

66:                                               ; preds = %18
  %67 = call i32 @get_log_level() #15
  %68 = icmp sgt i32 %67, 2
  br i1 %68, label %69, label %.backedge

69:                                               ; preds = %66
  call void (i32, ptr, ...) @log_var(i32 noundef 3, ptr noundef nonnull @.str.116) #15
  br label %.backedge

70:                                               ; preds = %18
  %.b.i = load i1, ptr @_handle_pipe.ending, align 4
  br i1 %.b.i, label %.backedge, label %71

71:                                               ; preds = %70
  store i1 true, ptr @_handle_pipe.ending, align 4
  call void @launch_g_fwd_signal(i32 noundef 9) #15
  br label %.backedge

72:                                               ; preds = %18
  %73 = load i8, ptr @srun_max_timer, align 1, !range !8, !noundef !9
  %74 = trunc nuw i8 %73 to i1
  br i1 %74, label %75, label %.backedge

75:                                               ; preds = %72
  %76 = call i32 @get_log_level() #15
  %77 = icmp sgt i32 %76, 2
  br i1 %77, label %78, label %80

78:                                               ; preds = %75
  %79 = load i32, ptr getelementptr inbounds nuw (i8, ptr @sropt, i64 104), align 8
  call void (i32, ptr, ...) @log_var(i32 noundef 3, ptr noundef nonnull @.str.117, i32 noundef %79) #15
  br label %80

80:                                               ; preds = %78, %75
  call void @launch_g_print_status() #15
  %81 = call i32 @launch_g_step_terminate() #15
  br label %.backedge

82:                                               ; preds = %18
  call void @launch_g_fwd_signal(i32 noundef %19) #15
  br label %.backedge

.backedge:                                        ; preds = %65, %82, %_handle_intr.exit, %20, %69, %66, %80, %72, %70, %71, %14
  %83 = load i8, ptr @srun_shutdown, align 1, !range !8, !noundef !9
  %84 = trunc nuw i8 %83 to i1
  br i1 %84, label %._crit_edge, label %14, !llvm.loop !47

._crit_edge:                                      ; preds = %.backedge, %.preheader
  call void @llvm.lifetime.end.p0(i64 128, ptr nonnull %4) #15
  call void @llvm.lifetime.end.p0(i64 4, ptr nonnull %3) #15
  ret ptr null
}